target datalayout = "e-m:e-p270:32:32-p271:32:32-p272:64:64-i64:64-i128:128-f80:128-n8:16:32:64-S128"
target triple = "x86_64-pc-linux-gnu"

%class.Type = type <{ ptr, ptr, i32, [4 x i8] }>
%class.Type.base = type <{ ptr, ptr, i32 }>
%class.TypeF = type { %class.Type.base, float }

@_ZN4Type6BOTTOME = hidden global ptr null, align 8
@_ZN4Type5FLOATE = hidden global ptr null, align 8
@g_assert_poison = external global ptr, align 8
@.str.42 = private unnamed_addr constant [32 x i8] c"src/hotspot/share/opto/type.cpp\00", align 1

; Function Attrs: mustprogress nounwind uwtable
define linkonce_odr hidden noundef float @_ZNK4Type4getfEv(ptr noundef nonnull align 8 dereferenceable(20) %0) #1 comdat align 2 {
  %2 = alloca ptr, align 8
  store ptr %0, ptr %2, align 8
  %3 = load ptr, ptr %2, align 8
  %4 = getelementptr inbounds %class.TypeF, ptr %3, i32 0, i32 1
  %5 = load float, ptr %4, align 4
  ret float %5
}

; Function Attrs: mustprogress nounwind uwtable
define linkonce_odr hidden noundef i32 @_Z9jint_castf(float noundef %0) #1 comdat {
  %2 = alloca float, align 4
  store float %0, ptr %2, align 4
  %3 = load i32, ptr %2, align 4
  ret i32 %3
}

; Function Attrs: mustprogress nounwind uwtable
define hidden void @_ZNK4Type6typerrEPKS_(ptr noundef nonnull align 8 dereferenceable(20) %0, ptr noundef %1) #1 align 2 {
  %3 = alloca ptr, align 8
  %4 = alloca ptr, align 8
  store ptr %0, ptr %3, align 8
  store ptr %1, ptr %4, align 8
  br label %5

5:                                                ; preds = %2
  %6 = load ptr, ptr @g_assert_poison, align 8
  store i8 88, ptr %6, align 1
  call void @_Z28report_should_not_reach_herePKci(ptr noundef @.str.42, i32 noundef 1290) #7
  unreachable

7:                                                ; No predecessors!
  ret void
}

; Function Attrs: mustprogress nounwind uwtable
define linkonce_odr hidden noundef i32 @_ZNK4Type4baseEv(ptr noundef nonnull align 8 dereferenceable(20) %0) #1 comdat align 2 {
  %2 = alloca ptr, align 8
  store ptr %0, ptr %2, align 8
  %3 = load ptr, ptr %2, align 8
  %4 = getelementptr inbounds %class.Type, ptr %3, i32 0, i32 2
  %5 = load i32, ptr %4, align 8
  ret i32 %5
}

; Function Attrs: mustprogress nounwind uwtable
define hidden noundef ptr @_ZNK5TypeF5xmeetEPK4Type(ptr noundef nonnull align 8 dereferenceable(24) %0, ptr noundef %1) unnamed_addr #1 align 2 {
  %3 = alloca ptr, align 8
  %4 = alloca ptr, align 8
  %5 = alloca ptr, align 8
  store ptr %0, ptr %4, align 8
  store ptr %1, ptr %5, align 8
  %6 = load ptr, ptr %4, align 8
  %7 = load ptr, ptr %5, align 8
  %8 = icmp eq ptr %6, %7
  br i1 %8, label %9, label %10

9:                                                ; preds = %2
  store ptr %6, ptr %3, align 8
  br label %32

10:                                               ; preds = %2
  %11 = load ptr, ptr %5, align 8
  %12 = call noundef i32 @_ZNK4Type4baseEv(ptr noundef nonnull align 8 dereferenceable(20) %11)
  switch i32 %12, label %17 [
    i32 18, label %13
    i32 19, label %13
    i32 20, label %13
    i32 21, label %13
    i32 22, label %13
    i32 23, label %13
    i32 24, label %13
    i32 25, label %13
    i32 26, label %13
    i32 6, label %13
    i32 7, label %13
    i32 3, label %13
    i32 4, label %13
    i32 34, label %13
    i32 35, label %13
    i32 36, label %13
    i32 37, label %13
    i32 33, label %15
    i32 32, label %19
    i32 2, label %30
    i32 31, label %30
  ]

13:                                               ; preds = %10, %10, %10, %10, %10, %10, %10, %10, %10, %10, %10, %10, %10, %10, %10, %10, %10
  %14 = load ptr, ptr @_ZN4Type6BOTTOME, align 8
  store ptr %14, ptr %3, align 8
  br label %32

15:                                               ; preds = %10
  %16 = load ptr, ptr %5, align 8
  store ptr %16, ptr %3, align 8
  br label %32

17:                                               ; preds = %10
  %18 = load ptr, ptr %5, align 8
  call void @_ZNK4Type6typerrEPKS_(ptr noundef nonnull align 8 dereferenceable(20) %6, ptr noundef %18)
  br label %19

19:                                               ; preds = %17, %10
  %20 = getelementptr inbounds %class.TypeF, ptr %6, i32 0, i32 1
  %21 = load float, ptr %20, align 4
  %22 = call noundef i32 @_Z9jint_castf(float noundef %21)
  %23 = load ptr, ptr %5, align 8
  %24 = call noundef float @_ZNK4Type4getfEv(ptr noundef nonnull align 8 dereferenceable(20) %23)
  %25 = call noundef i32 @_Z9jint_castf(float noundef %24)
  %26 = icmp ne i32 %22, %25
  br i1 %26, label %27, label %29

27:                                               ; preds = %19
  %28 = load ptr, ptr @_ZN4Type5FLOATE, align 8
  store ptr %28, ptr %3, align 8
  br label %32

29:                                               ; preds = %19
  br label %30

30:                                               ; preds = %29, %10, %10
  br label %31

31:                                               ; preds = %30
  store ptr %6, ptr %3, align 8
  br label %32

32:                                               ; preds = %31, %27, %15, %13, %9
  %33 = load ptr, ptr %3, align 8
  ret ptr %33
}