; Function Attrs: mustprogress nounwind uwtable
define hidden noundef ptr @_ZNK5TypeF5xmeetEPK4Type(ptr noundef nonnull readonly align 8 dereferenceable(24) %0, ptr noundef readonly %1) unnamed_addr #0 align 2 {
  %3 = icmp eq ptr %0, %1
  br i1 %3, label %19, label %4

4:                                                ; preds = %2
  %5 = getelementptr inbounds i8, ptr %1, i64 16
  %6 = load i32, ptr %5, align 8
  switch i32 %6, label %9 [
    i32 18, label %7
    i32 19, label %7
    i32 20, label %7
    i32 21, label %7
    i32 22, label %7
    i32 23, label %7
    i32 24, label %7
    i32 25, label %7
    i32 26, label %7
    i32 6, label %7
    i32 7, label %7
    i32 3, label %7
    i32 4, label %7
    i32 34, label %7
    i32 35, label %7
    i32 36, label %7
    i32 37, label %7
    i32 33, label %19
    i32 32, label %11
    i32 2, label %18
    i32 31, label %18
  ]

7:                                                ; preds = %4, %4, %4, %4, %4, %4, %4, %4, %4, %4, %4, %4, %4, %4, %4, %4, %4
  %8 = load ptr, ptr @_ZN4Type6BOTTOME, align 8
  br label %19

9:                                                ; preds = %4
  %10 = load ptr, ptr @g_assert_poison, align 8
  store i8 88, ptr %10, align 1
  tail call void @_Z28report_should_not_reach_herePKci(ptr noundef nonnull @.str.42, i32 noundef 1290) #18
  unreachable

11:                                               ; preds = %4
  %12 = getelementptr inbounds i8, ptr %0, i64 20
  %13 = load i32, ptr %12, align 4
  %14 = getelementptr inbounds i8, ptr %1, i64 20
  %15 = load i32, ptr %14, align 4
  %.not = icmp eq i32 %13, %15
  br i1 %.not, label %18, label %16

16:                                               ; preds = %11
  %17 = load ptr, ptr @_ZN4Type5FLOATE, align 8
  br label %19

18:                                               ; preds = %4, %4, %11
  br label %19

19:                                               ; preds = %4, %2, %18, %16, %7
  %.0 = phi ptr [ %17, %16 ], [ %0, %18 ], [ %8, %7 ], [ %0, %2 ], [ %1, %4 ]
  ret ptr %.0
}